target datalayout = "e-m:e-p270:32:32-p271:32:32-p272:64:64-i64:64-i128:128-f80:128-n8:16:32:64-S128"
target triple = "x86_64-pc-linux-gnu"

; Function Attrs: nounwind sspstrong uwtable
define dso_local void @tcg_gen_vec_sar16i_i32(ptr noundef %0, ptr noundef %1, i32 noundef %2) #0 {
  %4 = alloca ptr, align 8
  %5 = alloca ptr, align 8
  %6 = alloca i32, align 4
  %7 = alloca i32, align 4
  %8 = alloca i32, align 4
  %9 = alloca ptr, align 8
  store ptr %0, ptr %4, align 8
  store ptr %1, ptr %5, align 8
  store i32 %2, ptr %6, align 4
  call void @llvm.lifetime.start.p0(i64 4, ptr %7) #10
  %10 = load i32, ptr %6, align 4
  %11 = ashr i32 32768, %10
  %12 = trunc i32 %11 to i16
  %13 = zext i16 %12 to i64
  %14 = mul i64 281479271743489, %13
  %15 = trunc i64 %14 to i32
  store i32 %15, ptr %7, align 4
  call void @llvm.lifetime.start.p0(i64 4, ptr %8) #10
  %16 = load i32, ptr %6, align 4
  %17 = ashr i32 65535, %16
  %18 = trunc i32 %17 to i16
  %19 = zext i16 %18 to i64
  %20 = mul i64 281479271743489, %19
  %21 = trunc i64 %20 to i32
  store i32 %21, ptr %8, align 4
  call void @llvm.lifetime.start.p0(i64 8, ptr %9) #10
  %22 = call ptr @tcg_temp_ebb_new_i32()
  store ptr %22, ptr %9, align 8
  %23 = load ptr, ptr %4, align 8
  %24 = load ptr, ptr %5, align 8
  %25 = load i32, ptr %6, align 4
  call void @tcg_gen_shri_i32(ptr noundef %23, ptr noundef %24, i32 noundef %25)
  %26 = load ptr, ptr %9, align 8
  %27 = load ptr, ptr %4, align 8
  %28 = load i32, ptr %7, align 4
  call void @tcg_gen_andi_i32(ptr noundef %26, ptr noundef %27, i32 noundef %28)
  %29 = load ptr, ptr %4, align 8
  %30 = load ptr, ptr %4, align 8
  %31 = load i32, ptr %8, align 4
  call void @tcg_gen_andi_i32(ptr noundef %29, ptr noundef %30, i32 noundef %31)
  %32 = load ptr, ptr %9, align 8
  %33 = load ptr, ptr %9, align 8
  %34 = load i32, ptr %6, align 4
  %35 = shl i32 2, %34
  %36 = sub i32 %35, 2
  call void @tcg_gen_muli_i32(ptr noundef %32, ptr noundef %33, i32 noundef %36)
  %37 = load ptr, ptr %4, align 8
  %38 = load ptr, ptr %4, align 8
  %39 = load ptr, ptr %9, align 8
  call void @tcg_gen_or_i32(ptr noundef %37, ptr noundef %38, ptr noundef %39)
  %40 = load ptr, ptr %9, align 8
  call void @tcg_temp_free_i32(ptr noundef %40)
  call void @llvm.lifetime.end.p0(i64 8, ptr %9) #10
  call void @llvm.lifetime.end.p0(i64 4, ptr %8) #10
  call void @llvm.lifetime.end.p0(i64 4, ptr %7) #10
  ret void
}