; Function Attrs: nounwind sspstrong uwtable
define dso_local void @tcg_gen_vec_sar16i_i32(ptr noundef %0, ptr noundef %1, i32 noundef %2) local_unnamed_addr #2 {
  %4 = lshr i32 32768, %2
  %5 = mul nuw i32 %4, 65537
  %6 = lshr i32 65535, %2
  %7 = mul nuw i32 %6, 65537
  %8 = tail call ptr @tcg_temp_ebb_new_i32() #10
  tail call void @tcg_gen_shri_i32(ptr noundef %0, ptr noundef %1, i32 noundef %2) #10
  tail call void @tcg_gen_andi_i32(ptr noundef %8, ptr noundef %0, i32 noundef %5) #10
  tail call void @tcg_gen_andi_i32(ptr noundef %0, ptr noundef %0, i32 noundef %7) #10
  %9 = shl i32 2, %2
  %10 = add i32 %9, -2
  tail call void @tcg_gen_muli_i32(ptr noundef %8, ptr noundef %8, i32 noundef %10) #10
  tail call void @tcg_gen_or_i32(ptr noundef %0, ptr noundef %0, ptr noundef %8) #10
  tail call void @tcg_temp_free_i32(ptr noundef %8) #10
  ret void
}